(dp1
S'left_w0'
p2
F0.059613551150546222
sS'left_w1'
p3
F0.85168041845404385
sS'left_w2'
p4
F0.58307914693743279
sS'left_e0'
p5
F-0.050496357118203057
sS'left_e1'
p6
F1.269783464940333
sS'left_s0'
p7
F-0.13141718110035
sS'left_s1'
p8
F-0.54960956608803113
s.