(dp1
S'left_w0'
p2
F-0.048103749241994606
sS'left_w1'
p3
F0.46229118671683961
sS'left_w2'
p4
F1.5539712037572528
sS'left_e0'
p5
F0.023503863928991044
sS'left_e1'
p6
F1.4328731734481903
sS'left_s0'
p7
F0.72326184507899938
sS'left_s1'
p8
F-0.32545599808003489
s.