(dp1
S'right_s0'
p2
F0.93792489400281243
sS'right_s1'
p3
F-0.49788613386786396
sS'right_w0'
p4
F-0.73333584227261661
sS'right_w1'
p5
F1.6848544149256148
sS'right_w2'
p6
F0.55903751843592087
sS'right_e0'
p7
F0.85707679012681337
sS'right_e1'
p8
F0.54081497101034715
s.