S'left'
p1
.(dp1
S'left_w0'
p2
F-0.35319907600708011
sS'left_w1'
p3
F0.34284470570068359
sS'left_w2'
p4
F-0.82681564372558602
sS'left_e0'
p5
F0.46019423583984376
sS'left_e1'
p6
F0.69834475288696296
sS'left_s0'
p7
F1.3073351249816896
sS'left_s1'
p8
F-0.30027673888549805
s.