(dp1
S'left_w0'
p2
F-0.64465542537231446
sS'left_w1'
p3
F-0.017640779040527344
sS'left_w2'
p4
F0.18752915110473634
sS'left_e0'
p5
F0.11581554935302735
sS'left_e1'
p6
F0.74014572930908207
sS'left_s0'
p7
F-0.72173795987548828
sS'left_s1'
p8
F-0.42337869697265629
s.