S'left'
p1
.(dp1
S'left_w0'
p2
F-0.16797089608154298
sS'left_w1'
p3
F0.067878649786376963
sS'left_w2'
p4
F0.04256796681518555
sS'left_e0'
p5
F0.013038836682128907
sS'left_e1'
p6
F0.58828163148193369
sS'left_s0'
p7
F-0.66651465157470713
sS'left_s1'
p8
F-0.3313398498046875
s.(dp1
S'left_w0'
p2
F0.052538841925048832
sS'left_w1'
p3
F1.393238049005127
sS'left_w2'
p4
F-0.8766700192749024
sS'left_e0'
p5
F-0.21207284368286133
sS'left_e1'
p6
F1.2498108455017092
sS'left_s0'
p7
F-0.9387962411132813
sS'left_s1'
p8
F-0.97100983762207038
s.