S'left'
p1
.(dp1
S'left_w0'
p2
F-0.42644665854492192
sS'left_w1'
p3
F0.28608741661376957
sS'left_w2'
p4
F-0.78654864808959968
sS'left_e0'
p5
F0.11466506376342774
sS'left_e1'
p6
F1.8595682079895022
sS'left_s0'
p7
F-0.22741265154418946
sS'left_s1'
p8
F-0.65002435812377934
s.(dp1
S'left_w0'
p2
F-0.47476705330810548
sS'left_w1'
p3
F0.2323980890991211
sS'left_w2'
p4
F-0.81569428302612312
sS'left_e0'
p5
F0.14879613625488283
sS'left_e1'
p6
F1.696966244659424
sS'left_s0'
p7
F-0.30756314761962894
sS'left_s1'
p8
F-0.42452918256225591
s.(dp1
S'left_w0'
p2
F-0.53650977994995119
sS'left_w1'
p3
F0.05330583231811524
sS'left_w2'
p4
F-0.61244182886352538
sS'left_e0'
p5
F0.14917963145141602
sS'left_e1'
p6
F2.1732672787536624
sS'left_s0'
p7
F-0.22587867075805665
sS'left_s1'
p8
F-0.71560203673095713
s.(dp1
S'left_w0'
p2
F-0.55798551095581062
sS'left_w1'
p3
F0.093189332757568369
sS'left_w2'
p4
F-0.60707289611206061
sS'left_e0'
p5
F0.12962137642822266
sS'left_e1'
p6
F1.9358837520996095
sS'left_s0'
p7
F-0.22511168036499024
sS'left_s1'
p8
F-0.4494563703369141
s.(dp1
S'left_w0'
p2
F-0.52500492405395516
sS'left_w1'
p3
F0.58367968912353518
sS'left_w2'
p4
F-0.61781076161499027
sS'left_e0'
p5
F0.32060198430175785
sS'left_e1'
p6
F1.5293788437744142
sS'left_s0'
p7
F-0.22357769957885743
sS'left_s1'
p8
F-0.51695152492675789
s.(dp1
S'left_w0'
p2
F-0.56718939567260751
sS'left_w1'
p3
F0.558752501348877
sS'left_w2'
p4
F-0.61205833366699225
sS'left_e0'
p5
F0.30334470045776368
sS'left_e1'
p6
F1.3729128035888674
sS'left_s0'
p7
F-0.21437381486206056
sS'left_s1'
p8
F-0.31063110919189457
s.(dp1
S'left_w0'
p2
F-0.60707289611206061
sS'left_w1'
p3
F0.35895150395507813
sS'left_w2'
p4
F-0.3762087877990723
sS'left_e0'
p5
F0.24697090656738283
sS'left_e1'
p6
F1.887946852532959
sS'left_s0'
p7
F-0.050237870745849615
sS'left_s1'
p8
F-0.6515583389099121
s.(dp1
S'left_w0'
p2
F-0.63775251183471682
sS'left_w1'
p3
F0.27650003670043949
sS'left_w2'
p4
F-0.3781262637817383
sS'left_e0'
p5
F0.21283983407592774
sS'left_e1'
p6
F1.7307138219543459
sS'left_s0'
p7
F-0.052155346728515628
sS'left_s1'
p8
F-0.4118738410766602
s.