S'left'
p1
.(dp1
S'left_w0'
p2
F0.09855826550903321
sS'left_w1'
p3
F1.2827914324035645
sS'left_w2'
p4
F2.6852333661254884
sS'left_e0'
p5
F-0.65002435812377934
sS'left_e1'
p6
F1.672422552081299
sS'left_s0'
p7
F-0.13652428996582033
sS'left_s1'
p8
F-1.3890196018432619
s.