(dp1
S'left_w0'
p2
F-0.063813945268368047
sS'left_w1'
p3
F0.61510971606665499
sS'left_w2'
p4
F1.4438249728644375
sS'left_e0'
p5
F0.048342282860509914
sS'left_e1'
p6
F1.6280058370937205
sS'left_s0'
p7
F0.58145300471075756
sS'left_s1'
p8
F-0.67231477862802325
s.