S'right'
p1
.(dp1
S'right_s0'
p2
F-0.091271856774902349
sS'right_s1'
p3
F-0.38426218692626957
sS'right_w0'
p4
F0.033747577294921879
sS'right_w1'
p5
F0.85826224984130861
sS'right_w2'
p6
F-0.93304381316528329
sS'right_e0'
p7
F0.029145634936523439
sS'right_e1'
p8
F1.0895098533508301
s.(dp1
S'right_s0'
p2
F-0.10852914061889649
sS'right_s1'
p3
F-0.10776215022583009
sS'right_w0'
p4
F0.032597091705322268
sS'right_w1'
p5
F0.93956323150634768
sS'right_w2'
p6
F-0.94531565945434581
sS'right_e0'
p7
F0.044485442797851563
sS'right_e1'
p8
F0.76929136424560551
s.(dp1
S'right_s0'
p2
F-0.25310682971191406
sS'right_s1'
p3
F-0.45712627426757818
sS'right_w0'
p4
F-0.085902924023437507
sS'right_w1'
p5
F0.81531078782958988
sS'right_w2'
p6
F-1.0005389677551271
sS'right_e0'
p7
F0.10354370306396485
sS'right_e1'
p8
F1.2643836629699707
s.(dp1
S'right_s0'
p2
F-0.26384469521484377
sS'right_s1'
p3
F-0.2580922672668457
sS'right_w0'
p4
F-0.098174770312500007
sS'right_w1'
p5
F0.69450980092163095
sS'right_w2'
p6
F-0.99670401578979495
sS'right_e0'
p7
F0.10009224629516603
sS'right_e1'
p8
F1.1612234551025391
s.(dp1
S'right_s0'
p2
F-0.15646604018554688
sS'right_s1'
p3
F-0.5207864768920899
sS'right_w0'
p4
F-0.38464568212280276
sS'right_w1'
p5
F0.73362631096801767
sS'right_w2'
p6
F-0.60783988650512699
sS'right_e0'
p7
F0.30756314761962894
sS'right_e1'
p8
F1.4139467896179201
s.(dp1
S'right_s0'
p2
F-0.1568495353820801
sS'right_s1'
p3
F-0.31139809958496095
sS'right_w0'
p4
F-0.40573791793212893
sS'right_w1'
p5
F0.63238357908325205
sS'right_w2'
p6
F-0.53650977994995119
sS'right_e0'
p7
F0.29452431093750003
sS'right_e1'
p8
F1.3031166778198242
s.(dp1
S'right_s0'
p2
F-0.38579616771240238
sS'right_s1'
p3
F-0.55031560702514648
sS'right_w0'
p4
F-0.485121423614502
sS'right_w1'
p5
F0.43143209609985356
sS'right_w2'
p6
F-0.64235445419311532
sS'right_e0'
p7
F0.33900975373535158
sS'right_e1'
p8
F1.7552575145324709
s.(dp1
S'right_s0'
p2
F-0.31676703233642578
sS'right_s1'
p3
F-0.39269908125000003
sS'right_w0'
p4
F-0.58367968912353518
sS'right_w1'
p5
F0.35281558081054692
sS'right_w2'
p6
F-0.54149521750488283
sS'right_e0'
p7
F0.27113110394897461
sS'right_e1'
p8
F1.6613011913818361
s.